(ideluge.core.torrentmanager
TorrentManagerState
p1
(dp2
S'torrents'
p3
(lp4
(ideluge.core.torrentmanager
TorrentState
p5
(dp6
S'max_download_speed'
p7
F-1
sS'move_completed_path'
p8
S'/home/max/Downloads'
p9
sS'paused'
p10
I01
sS'max_upload_slots'
p11
I-1
sS'prioritize_first_last'
p12
I00
sS'max_connections'
p13
I-1
sS'compact'
p14
I00
sS'queue'
p15
I0
sS'file_priorities'
p16
(lp17
sS'filename'
p18
S'cd65596d3fd8f6506692e31ee0533ba3b2578cae'
p19
sS'max_upload_speed'
p20
F-1
sS'save_path'
p21
S'/home/max/Downloads'
p22
sS'time_added'
p23
F1548434482.1538391
sS'total_uploaded'
p24
I0
sS'torrent_id'
p25
g19
sS'auto_managed'
p26
I01
sS'stop_at_ratio'
p27
I00
sS'move_completed'
p28
I00
sS'trackers'
p29
(lp30
(dp31
S'send_stats'
p32
I01
sS'fails'
p33
I0
sS'verified'
p34
I00
sS'scrape_incomplete'
p35
I-1
sS'min_announce'
p36
NsS'source'
p37
I4
sS'url'
p38
S'udp://tracker.leechers-paradise.org:6969'
p39
sS'last_error'
p40
(dp41
S'category'
p42
S'system'
p43
sS'value'
p44
I0
ssS'fail_limit'
p45
I0
sS'next_announce'
p46
NsS'complete_sent'
p47
I00
sS'scrape_downloaded'
p48
I-1
sS'trackerid'
p49
S''
sS'start_sent'
p50
I00
sS'tier'
p51
I0
sS'scrape_complete'
p52
I-1
sS'message'
p53
S''
sS'updating'
p54
I00
sa(dp55
S'send_stats'
p56
I01
sS'fails'
p57
I0
sS'verified'
p58
I00
sS'scrape_incomplete'
p59
I-1
sS'min_announce'
p60
NsS'source'
p61
I4
sS'url'
p62
S'udp://zer0day.ch:1337'
p63
sS'last_error'
p64
(dp65
S'category'
p66
S'system'
p67
sS'value'
p68
I0
ssS'fail_limit'
p69
I0
sS'next_announce'
p70
NsS'complete_sent'
p71
I00
sS'scrape_downloaded'
p72
I-1
sS'trackerid'
p73
S''
sS'start_sent'
p74
I00
sS'tier'
p75
I1
sS'scrape_complete'
p76
I-1
sS'message'
p77
S''
sS'updating'
p78
I00
sa(dp79
S'send_stats'
p80
I01
sS'fails'
p81
I0
sS'verified'
p82
I00
sS'scrape_incomplete'
p83
I-1
sS'min_announce'
p84
NsS'source'
p85
I4
sS'url'
p86
S'udp://open.demonii.com:1337'
p87
sS'last_error'
p88
(dp89
S'category'
p90
S'system'
p91
sS'value'
p92
I0
ssS'fail_limit'
p93
I0
sS'next_announce'
p94
NsS'complete_sent'
p95
I00
sS'scrape_downloaded'
p96
I-1
sS'trackerid'
p97
S''
sS'start_sent'
p98
I00
sS'tier'
p99
I2
sS'scrape_complete'
p100
I-1
sS'message'
p101
S''
sS'updating'
p102
I00
sa(dp103
S'send_stats'
p104
I01
sS'fails'
p105
I0
sS'verified'
p106
I00
sS'scrape_incomplete'
p107
I-1
sS'min_announce'
p108
NsS'source'
p109
I4
sS'url'
p110
S'udp://tracker.coppersurfer.tk:6969'
p111
sS'last_error'
p112
(dp113
S'category'
p114
S'system'
p115
sS'value'
p116
I0
ssS'fail_limit'
p117
I0
sS'next_announce'
p118
NsS'complete_sent'
p119
I00
sS'scrape_downloaded'
p120
I-1
sS'trackerid'
p121
S''
sS'start_sent'
p122
I00
sS'tier'
p123
I3
sS'scrape_complete'
p124
I-1
sS'message'
p125
S''
sS'updating'
p126
I00
sa(dp127
S'send_stats'
p128
I01
sS'fails'
p129
I0
sS'verified'
p130
I00
sS'scrape_incomplete'
p131
I-1
sS'min_announce'
p132
NsS'source'
p133
I4
sS'url'
p134
S'udp://exodus.desync.com:6969'
p135
sS'last_error'
p136
(dp137
S'category'
p138
S'system'
p139
sS'value'
p140
I0
ssS'fail_limit'
p141
I0
sS'next_announce'
p142
NsS'complete_sent'
p143
I00
sS'scrape_downloaded'
p144
I-1
sS'trackerid'
p145
S''
sS'start_sent'
p146
I00
sS'tier'
p147
I4
sS'scrape_complete'
p148
I-1
sS'message'
p149
S''
sS'updating'
p150
I00
sasS'magnet'
p151
S'magnet:?xt=urn:btih:cd65596d3fd8f6506692e31ee0533ba3b2578cae&dn=Microsoft+Toolkit+2.5.3+Official+Torrent&tr=udp%3A%2F%2Ftracker.leechers-paradise.org%3A6969&tr=udp%3A%2F%2Fzer0day.ch%3A1337&tr=udp%3A%2F%2Fopen.demonii.com%3A1337&tr=udp%3A%2F%2Ftracker.coppersurfer.tk%3A6969&tr=udp%3A%2F%2Fexodus.desync.com%3A6969'
p152
sS'remove_at_ratio'
p153
I00
sS'stop_ratio'
p154
F2
sS'is_finished'
p155
I00
sba(ideluge.core.torrentmanager
TorrentState
p156
(dp157
g7
F-1
sg8
S'/home/max/Downloads'
p158
sg10
I00
sg11
I-1
sg12
I00
sg13
I-1
sg14
I00
sg15
I-1
sg16
(lp159
I4
aI4
aI4
aI4
asg18
S'[SWITCH]The Legend of Zelda Breath of The Wild + Update + DLC Multi EU ESHOP NSP.torrent'
p160
sg20
F-1
sg21
S'/home/max/Downloads'
p161
sg23
F1548245124.2240231
sg24
I145451178
sg25
S'e1799ee652d3f1667978d1936f2ec6dcd026ebdb'
p162
sg26
I01
sg27
I00
sg28
I00
sg29
(lp163
(dp164
S'send_stats'
p165
I01
sS'fails'
p166
I0
sS'verified'
p167
I00
sS'scrape_incomplete'
p168
I-1
sS'min_announce'
p169
NsS'source'
p170
I1
sS'url'
p171
S'http://tracker.ygg.is:8080/4eqWnAWYxUJxvvwHS0zLIuTjm49QGcv0/announce'
p172
sS'last_error'
p173
(dp174
S'category'
p175
S'system'
p176
sS'value'
p177
I0
ssS'fail_limit'
p178
I0
sS'next_announce'
p179
NsS'complete_sent'
p180
I00
sS'scrape_downloaded'
p181
I-1
sS'trackerid'
p182
S''
sS'start_sent'
p183
I00
sS'tier'
p184
I0
sS'scrape_complete'
p185
I-1
sS'message'
p186
S''
sS'updating'
p187
I00
sasg151
Nsg153
I00
sg154
F2
sg155
I01
sba(ideluge.core.torrentmanager
TorrentState
p188
(dp189
g7
F-1
sg8
S'/home/max/Downloads'
p190
sg10
I00
sg11
I-1
sg12
I00
sg13
I-1
sg14
I00
sg15
I-1
sg16
(lp191
I4
asg18
S'f9a510aed1176f74eb8351c4491ea1a17b91f18f'
p192
sg20
F-1
sg21
S'/home/max/Downloads'
p193
sg23
F1548244313.9985819
sg24
I270642932
sg25
S'f9a510aed1176f74eb8351c4491ea1a17b91f18f'
p194
sg26
I01
sg27
I00
sg28
I00
sg29
(lp195
sg151
Nsg153
I00
sg154
F2
sg155
I01
sbasb.